target datalayout = "e-m:e-p270:32:32-p271:32:32-p272:64:64-i64:64-i128:128-f80:128-n8:16:32:64-S128"
target triple = "x86_64-pc-linux-gnu"

%"class.google::protobuf::Arena" = type { %"class.google::protobuf::internal::ArenaImpl", ptr, ptr, ptr, ptr }
%"class.google::protobuf::internal::ArenaImpl" = type { %"struct.std::atomic.41", %"struct.std::atomic.41", %"struct.std::atomic.43", ptr, i64, %"struct.google::protobuf::internal::ArenaImpl::Options" }
%"struct.std::atomic.41" = type { %"struct.std::__atomic_base.42" }
%"struct.std::__atomic_base.42" = type { ptr }
%"struct.std::atomic.43" = type { %"struct.std::__atomic_base.44" }
%"struct.std::__atomic_base.44" = type { i64 }
%"struct.google::protobuf::internal::ArenaImpl::Options" = type { i64, i64, ptr, i64, ptr, ptr }

@_ZTIN4onnx11TensorProtoE = dso_local constant { ptr, ptr, ptr } { ptr getelementptr inbounds (ptr, ptr @_ZTVN10__cxxabiv120__si_class_type_infoE, i64 2), ptr @_ZTSN4onnx11TensorProtoE, ptr @_ZTIN6google8protobuf7MessageE }, align 8
@_ZN4onnx11TensorProtoC1EPN6google8protobuf5ArenaE = dso_local unnamed_addr alias void (ptr, ptr), ptr @_ZN4onnx11TensorProtoC2EPN6google8protobuf5ArenaE

; Function Attrs: inlinehint mustprogress uwtable
define linkonce_odr dso_local void @_ZNK6google8protobuf5Arena9AllocHookEPKSt9type_infom(ptr noundef nonnull align 8 dereferenceable(120) %0, ptr noundef %1, i64 noundef %2) #7 comdat align 2 {
  %4 = alloca ptr, align 8
  %5 = alloca ptr, align 8
  %6 = alloca i64, align 8
  store ptr %0, ptr %4, align 8, !tbaa !42
  store ptr %1, ptr %5, align 8, !tbaa !432
  store i64 %2, ptr %6, align 8, !tbaa !110
  %7 = load ptr, ptr %4, align 8
  %8 = getelementptr inbounds nuw %"class.google::protobuf::Arena", ptr %7, i32 0, i32 4
  %9 = load ptr, ptr %8, align 8, !tbaa !434
  %10 = icmp ne ptr %9, null
  %11 = zext i1 %10 to i64
  %12 = call i64 @llvm.expect.i64(i64 %11, i64 0)
  %13 = icmp ne i64 %12, 0
  br i1 %13, label %14, label %17

14:                                               ; preds = %3
  %15 = load ptr, ptr %5, align 8, !tbaa !432
  %16 = load i64, ptr %6, align 8, !tbaa !110
  call void @_ZNK6google8protobuf5Arena17OnArenaAllocationEPKSt9type_infom(ptr noundef nonnull align 8 dereferenceable(120) %7, ptr noundef %15, i64 noundef %16)
  br label %17

17:                                               ; preds = %14, %3
  ret void
}

; Function Attrs: inlinehint mustprogress nounwind uwtable
define linkonce_odr dso_local noundef i64 @_ZN6google8protobuf8internal10AlignUpTo8Em(i64 noundef %0) #6 comdat {
  %2 = alloca i64, align 8
  store i64 %0, ptr %2, align 8, !tbaa !110
  %3 = load i64, ptr %2, align 8, !tbaa !110
  %4 = add i64 %3, 7
  %5 = and i64 %4, -8
  ret i64 %5
}

; Function Attrs: mustprogress uwtable
define linkonce_odr dso_local noundef ptr @_ZN6google8protobuf5Arena14InternalHelperIN4onnx11TensorProtoEE9ConstructIJPS1_EEEPS4_PvDpOT_(ptr noundef %0, ptr noundef nonnull align 8 dereferenceable(8) %1) #4 comdat align 2 {
  %3 = alloca ptr, align 8
  %4 = alloca ptr, align 8
  store ptr %0, ptr %3, align 8, !tbaa !4
  store ptr %1, ptr %4, align 8, !tbaa !678
  %5 = load ptr, ptr %3, align 8, !tbaa !4
  %6 = load ptr, ptr %4, align 8, !tbaa !678
  %7 = load ptr, ptr %6, align 8, !tbaa !42
  call void @_ZN4onnx11TensorProtoC1EPN6google8protobuf5ArenaE(ptr noundef nonnull align 8 dereferenceable(248) %5, ptr noundef %7)
  ret ptr %5
}

; Function Attrs: alwaysinline mustprogress uwtable
define linkonce_odr dso_local noundef ptr @_ZN6google8protobuf5Arena16AllocateInternalIN4onnx11TensorProtoEEEPvb(ptr noundef nonnull align 8 dereferenceable(120) %0, i1 noundef zeroext %1) #8 comdat align 2 {
  %3 = alloca ptr, align 8
  %4 = alloca ptr, align 8
  %5 = alloca i8, align 1
  %6 = alloca i64, align 8
  %7 = alloca i32, align 4
  store ptr %0, ptr %4, align 8, !tbaa !42
  %8 = zext i1 %1 to i8
  store i8 %8, ptr %5, align 1, !tbaa !8
  %9 = load ptr, ptr %4, align 8
  call void @llvm.lifetime.start.p0(i64 8, ptr %6) #3
  %10 = call noundef i64 @_ZN6google8protobuf8internal10AlignUpTo8Em(i64 noundef 248)
  store i64 %10, ptr %6, align 8, !tbaa !110
  %11 = load i64, ptr %6, align 8, !tbaa !110
  call void @_ZNK6google8protobuf5Arena9AllocHookEPKSt9type_infom(ptr noundef nonnull align 8 dereferenceable(120) %9, ptr noundef @_ZTIN4onnx11TensorProtoE, i64 noundef %11)
  %12 = load i8, ptr %5, align 1, !tbaa !8, !range !77, !noundef !78
  %13 = trunc i8 %12 to i1
  br i1 %13, label %14, label %17

14:                                               ; preds = %2
  %15 = load i64, ptr %6, align 8, !tbaa !110
  %16 = call noundef ptr @_ZN6google8protobuf5Arena21AllocateAlignedNoHookEm(ptr noundef nonnull align 8 dereferenceable(120) %9, i64 noundef %15)
  store ptr %16, ptr %3, align 8
  store i32 1, ptr %7, align 4
  br label %21

17:                                               ; preds = %2
  %18 = getelementptr inbounds nuw %"class.google::protobuf::Arena", ptr %9, i32 0, i32 0
  %19 = load i64, ptr %6, align 8, !tbaa !110
  %20 = call noundef ptr @_ZN6google8protobuf8internal9ArenaImpl28AllocateAlignedAndAddCleanupEmPFvPvE(ptr noundef nonnull align 8 dereferenceable(88) %18, i64 noundef %19, ptr noundef @_ZN6google8protobuf8internal21arena_destruct_objectIN4onnx11TensorProtoEEEvPv)
  store ptr %20, ptr %3, align 8
  store i32 1, ptr %7, align 4
  br label %21

21:                                               ; preds = %17, %14
  call void @llvm.lifetime.end.p0(i64 8, ptr %6) #3
  %22 = load ptr, ptr %3, align 8
  ret ptr %22
}

; Function Attrs: alwaysinline mustprogress uwtable
define linkonce_odr dso_local noundef ptr @_ZN6google8protobuf5Arena15DoCreateMessageIN4onnx11TensorProtoEJEEEPT_DpOT0_(ptr noundef nonnull align 8 dereferenceable(120) %0) #8 comdat align 2 {
  %2 = alloca ptr, align 8
  %3 = alloca ptr, align 8
  store ptr %0, ptr %2, align 8, !tbaa !42
  %4 = load ptr, ptr %2, align 8
  %5 = call noundef ptr @_ZN6google8protobuf5Arena16AllocateInternalIN4onnx11TensorProtoEEEPvb(ptr noundef nonnull align 8 dereferenceable(120) %4, i1 noundef zeroext true)
  call void @llvm.lifetime.start.p0(i64 8, ptr %3) #3
  store ptr %4, ptr %3, align 8, !tbaa !42
  %6 = call noundef ptr @_ZN6google8protobuf5Arena14InternalHelperIN4onnx11TensorProtoEE9ConstructIJPS1_EEEPS4_PvDpOT_(ptr noundef %5, ptr noundef nonnull align 8 dereferenceable(8) %3)
  call void @llvm.lifetime.end.p0(i64 8, ptr %3) #3
  ret ptr %6
}

; Function Attrs: inlinehint mustprogress uwtable
define linkonce_odr dso_local void @_ZN4onnx11TensorProtoC2Ev(ptr noundef nonnull align 8 dereferenceable(248) %0) unnamed_addr #7 comdat align 2 {
  %2 = alloca ptr, align 8
  store ptr %0, ptr %2, align 8, !tbaa !88
  %3 = load ptr, ptr %2, align 8
  call void @_ZN4onnx11TensorProtoC2EPN6google8protobuf5ArenaE(ptr noundef nonnull align 8 dereferenceable(248) %3, ptr noundef null)
  ret void
}

; Function Attrs: alwaysinline mustprogress uwtable
define linkonce_odr dso_local noundef ptr @_ZN6google8protobuf5Arena21CreateMessageInternalIN4onnx11TensorProtoEEEPT_PS1_(ptr noundef %0) #8 comdat align 2 personality ptr @__gxx_personality_v0 {
  %2 = alloca ptr, align 8
  %3 = alloca ptr, align 8
  %4 = alloca ptr, align 8
  %5 = alloca i32, align 4
  store ptr %0, ptr %3, align 8, !tbaa !42
  %6 = load ptr, ptr %3, align 8, !tbaa !42
  %7 = icmp eq ptr %6, null
  br i1 %7, label %8, label %15

8:                                                ; preds = %1
  %9 = call noalias noundef nonnull ptr @_Znwm(i64 noundef 248) #21
  invoke void @_ZN4onnx11TensorProtoC2Ev(ptr noundef nonnull align 8 dereferenceable(248) %9)
          to label %10 unwind label %11

10:                                               ; preds = %8
  store ptr %9, ptr %2, align 8
  br label %18

11:                                               ; preds = %8
  %12 = landingpad { ptr, i32 }
          cleanup
  %13 = extractvalue { ptr, i32 } %12, 0
  store ptr %13, ptr %4, align 8
  %14 = extractvalue { ptr, i32 } %12, 1
  store i32 %14, ptr %5, align 4
  call void @_ZdlPv(ptr noundef %9) #22
  br label %20

15:                                               ; preds = %1
  %16 = load ptr, ptr %3, align 8, !tbaa !42
  %17 = call noundef ptr @_ZN6google8protobuf5Arena15DoCreateMessageIN4onnx11TensorProtoEJEEEPT_DpOT0_(ptr noundef nonnull align 8 dereferenceable(120) %16)
  store ptr %17, ptr %2, align 8
  br label %18

18:                                               ; preds = %15, %10
  %19 = load ptr, ptr %2, align 8
  ret ptr %19

20:                                               ; preds = %11
  %21 = load ptr, ptr %4, align 8
  %22 = load i32, ptr %5, align 4
  %23 = insertvalue { ptr, i32 } poison, ptr %21, 0
  %24 = insertvalue { ptr, i32 } %23, i32 %22, 1
  resume { ptr, i32 } %24
}

; Function Attrs: mustprogress noinline uwtable
define dso_local noundef ptr @_ZN6google8protobuf5Arena18CreateMaybeMessageIN4onnx11TensorProtoEJEEEPT_PS1_DpOT0_(ptr noundef %0) #17 align 2 {
  %2 = alloca ptr, align 8
  store ptr %0, ptr %2, align 8, !tbaa !42
  %3 = load ptr, ptr %2, align 8, !tbaa !42
  %4 = call noundef ptr @_ZN6google8protobuf5Arena21CreateMessageInternalIN4onnx11TensorProtoEEEPT_PS1_(ptr noundef %3)
  ret ptr %4
}